target datalayout = "e-m:e-p270:32:32-p271:32:32-p272:64:64-i64:64-i128:128-f80:128-n8:16:32:64-S128"
target triple = "x86_64-pc-linux-gnu"

%struct.saucy = type { i32, ptr, ptr, ptr, ptr, %struct.coloring, %struct.coloring, ptr, ptr, ptr, ptr, ptr, i32, i32, ptr, i32, ptr, ptr, ptr, ptr, ptr, ptr, ptr, i32, i32, ptr, i32, ptr, i32, i32, ptr, ptr, ptr, ptr, ptr, ptr, ptr, ptr, ptr, ptr, i32, ptr, ptr, ptr, i32, ptr, i32, ptr, ptr, ptr, ptr, i32, ptr, ptr, i32, ptr, ptr, ptr, ptr, ptr, ptr, ptr, ptr, ptr, ptr, ptr, ptr, ptr, ptr, ptr, ptr, ptr, ptr, ptr, ptr, ptr, ptr, double, i32, i32, i32, ptr, ptr, ptr, ptr }
%struct.coloring = type { ptr, ptr, ptr, ptr }

; Function Attrs: nounwind uwtable
define internal i32 @ref_nonsingle_directed(ptr noundef %0, ptr noundef %1, i32 noundef %2) #0 {
  %4 = alloca ptr, align 8
  %5 = alloca ptr, align 8
  %6 = alloca i32, align 4
  store ptr %0, ptr %4, align 8
  store ptr %1, ptr %5, align 8
  store i32 %2, ptr %6, align 4
  %7 = load ptr, ptr %4, align 8
  %8 = load ptr, ptr %5, align 8
  %9 = load ptr, ptr %4, align 8
  %10 = getelementptr inbounds %struct.saucy, ptr %9, i32 0, i32 1
  %11 = load ptr, ptr %10, align 8
  %12 = load ptr, ptr %4, align 8
  %13 = getelementptr inbounds %struct.saucy, ptr %12, i32 0, i32 2
  %14 = load ptr, ptr %13, align 8
  %15 = load i32, ptr %6, align 4
  %16 = call i32 @ref_nonsingle(ptr noundef %7, ptr noundef %8, ptr noundef %11, ptr noundef %14, i32 noundef %15)
  %17 = icmp ne i32 %16, 0
  br i1 %17, label %18, label %30

18:                                               ; preds = %3
  %19 = load ptr, ptr %4, align 8
  %20 = load ptr, ptr %5, align 8
  %21 = load ptr, ptr %4, align 8
  %22 = getelementptr inbounds %struct.saucy, ptr %21, i32 0, i32 3
  %23 = load ptr, ptr %22, align 8
  %24 = load ptr, ptr %4, align 8
  %25 = getelementptr inbounds %struct.saucy, ptr %24, i32 0, i32 4
  %26 = load ptr, ptr %25, align 8
  %27 = load i32, ptr %6, align 4
  %28 = call i32 @ref_nonsingle(ptr noundef %19, ptr noundef %20, ptr noundef %23, ptr noundef %26, i32 noundef %27)
  %29 = icmp ne i32 %28, 0
  br label %30

30:                                               ; preds = %18, %3
  %31 = phi i1 [ false, %3 ], [ %29, %18 ]
  %32 = zext i1 %31 to i32
  ret i32 %32
}